target datalayout = "e-m:e-p270:32:32-p271:32:32-p272:64:64-i64:64-i128:128-f80:128-n8:16:32:64-S128"
target triple = "x86_64-pc-linux-gnu"

%"class.std::__cxx11::basic_string" = type { %"struct.std::__cxx11::basic_string<char>::_Alloc_hider", i64, %union.anon }
%"struct.std::__cxx11::basic_string<char>::_Alloc_hider" = type { ptr }
%union.anon = type { i64, [8 x i8] }
%"class.Json::FastWriter" = type <{ %"class.Json::Writer", %"class.std::__cxx11::basic_string", i8, i8, i8, [5 x i8] }>
%"class.Json::Writer" = type { ptr }

@_ZTVN4Json10FastWriterE = dso_local unnamed_addr constant { [5 x ptr] } { [5 x ptr] [ptr null, ptr @_ZTIN4Json10FastWriterE, ptr @_ZN4Json10FastWriterD2Ev, ptr @_ZN4Json10FastWriterD0Ev, ptr @_ZN4Json10FastWriter5writeB5cxx11ERKNS_5ValueE] }, align 8
@_ZTVN4Json6WriterE = dso_local unnamed_addr constant { [5 x ptr] } { [5 x ptr] [ptr null, ptr @_ZTIN4Json6WriterE, ptr @_ZN4Json6WriterD1Ev, ptr @_ZN4Json6WriterD0Ev, ptr @__cxa_pure_virtual] }, align 8

; Function Attrs: mustprogress nounwind uwtable
define linkonce_odr dso_local void @_ZN4Json6WriterC2Ev(ptr noundef nonnull align 8 dereferenceable(8) %0) unnamed_addr #1 comdat align 2 {
  %2 = alloca ptr, align 8
  store ptr %0, ptr %2, align 8
  %3 = load ptr, ptr %2, align 8
  store ptr getelementptr inbounds ({ [5 x ptr] }, ptr @_ZTVN4Json6WriterE, i32 0, i32 0, i32 2), ptr %3, align 8
  ret void
}

; Function Attrs: mustprogress nounwind uwtable
define dso_local void @_ZN4Json10FastWriterC2Ev(ptr noundef nonnull align 8 dereferenceable(43) %0) unnamed_addr #1 align 2 {
  %2 = alloca ptr, align 8
  store ptr %0, ptr %2, align 8
  %3 = load ptr, ptr %2, align 8
  call void @_ZN4Json6WriterC2Ev(ptr noundef nonnull align 8 dereferenceable(8) %3) #9
  store ptr getelementptr inbounds ({ [5 x ptr] }, ptr @_ZTVN4Json10FastWriterE, i32 0, i32 0, i32 2), ptr %3, align 8
  %4 = getelementptr inbounds %"class.Json::FastWriter", ptr %3, i32 0, i32 1
  call void @_ZNSt7__cxx1112basic_stringIcSt11char_traitsIcESaIcEEC1Ev(ptr noundef nonnull align 8 dereferenceable(32) %4) #9
  %5 = getelementptr inbounds %"class.Json::FastWriter", ptr %3, i32 0, i32 2
  store i8 0, ptr %5, align 8
  %6 = getelementptr inbounds %"class.Json::FastWriter", ptr %3, i32 0, i32 3
  store i8 0, ptr %6, align 1
  %7 = getelementptr inbounds %"class.Json::FastWriter", ptr %3, i32 0, i32 4
  store i8 0, ptr %7, align 2
  ret void
}