; Function Attrs: mustprogress nounwind uwtable
define dso_local void @_ZN4Json10FastWriterC2Ev(ptr noundef nonnull align 8 dereferenceable(43) %0) unnamed_addr #6 align 2 {
  store ptr getelementptr inbounds ({ [5 x ptr] }, ptr @_ZTVN4Json10FastWriterE, i64 0, i32 0, i64 2), ptr %0, align 8
  %2 = getelementptr inbounds i8, ptr %0, i64 8
  tail call void @_ZNSt7__cxx1112basic_stringIcSt11char_traitsIcESaIcEEC1Ev(ptr noundef nonnull align 8 dereferenceable(32) %2) #19
  %3 = getelementptr inbounds i8, ptr %0, i64 40
  store i8 0, ptr %3, align 8
  %4 = getelementptr inbounds i8, ptr %0, i64 41
  store i8 0, ptr %4, align 1
  %5 = getelementptr inbounds i8, ptr %0, i64 42
  store i8 0, ptr %5, align 2
  ret void
}